target datalayout = "e-m:e-p270:32:32-p271:32:32-p272:64:64-i64:64-i128:128-f80:128-n8:16:32:64-S128"
target triple = "x86_64-pc-linux-gnu"

%struct.FT_Service_MultiMastersRec_ = type { ptr, ptr, ptr, ptr, ptr, ptr, ptr, ptr, ptr, ptr, ptr, ptr, ptr, ptr, ptr, ptr, ptr, ptr, ptr }
%struct.FT_FaceRec_ = type { i64, i64, i64, i64, i64, ptr, ptr, i32, ptr, i32, ptr, %struct.FT_Generic_, %struct.FT_BBox_, i16, i16, i16, i16, i16, i16, i16, i16, ptr, ptr, ptr, ptr, ptr, ptr, %struct.FT_ListRec_, %struct.FT_Generic_, ptr, ptr }
%struct.FT_BBox_ = type { i64, i64, i64, i64 }
%struct.FT_ListRec_ = type { ptr, ptr }
%struct.FT_Generic_ = type { ptr, ptr }
%struct.FT_Face_InternalRec_ = type { %struct.FT_Matrix_, %struct.FT_Vector_, i32, %struct.FT_ServiceCacheRec_, ptr, i8, i32, i32 }
%struct.FT_Matrix_ = type { i64, i64, i64, i64 }
%struct.FT_Vector_ = type { i64, i64 }
%struct.FT_ServiceCacheRec_ = type { ptr, ptr, ptr, ptr, ptr, ptr }
%struct.FT_ModuleRec_ = type { ptr, ptr, ptr }
%struct.FT_Module_Class_ = type { i64, i64, ptr, i64, i64, ptr, ptr, ptr, ptr }

@.str = private unnamed_addr constant [14 x i8] c"multi-masters\00", align 1

; Function Attrs: nounwind uwtable
define internal i32 @ft_face_get_mm_service(ptr noundef %0, ptr noundef %1) #0 {
  %3 = alloca i32, align 4
  %4 = alloca ptr, align 8
  %5 = alloca ptr, align 8
  %6 = alloca i32, align 4
  %7 = alloca ptr, align 8
  %8 = alloca ptr, align 8
  %9 = alloca ptr, align 8
  store ptr %0, ptr %4, align 8
  store ptr %1, ptr %5, align 8
  %10 = load ptr, ptr %5, align 8
  store ptr null, ptr %10, align 8
  %11 = load ptr, ptr %4, align 8
  %12 = icmp ne ptr %11, null
  br i1 %12, label %14, label %13

13:                                               ; preds = %2
  store i32 35, ptr %3, align 4
  br label %80

14:                                               ; preds = %2
  store i32 6, ptr %6, align 4
  %15 = load ptr, ptr %4, align 8
  %16 = getelementptr inbounds %struct.FT_FaceRec_, ptr %15, i32 0, i32 2
  %17 = load i64, ptr %16, align 8
  %18 = and i64 %17, 256
  %19 = icmp ne i64 %18, 0
  br i1 %19, label %20, label %78

20:                                               ; preds = %14
  br label %21

21:                                               ; preds = %20
  %22 = load ptr, ptr %4, align 8
  %23 = getelementptr inbounds %struct.FT_FaceRec_, ptr %22, i32 0, i32 30
  %24 = load ptr, ptr %23, align 8
  %25 = getelementptr inbounds %struct.FT_Face_InternalRec_, ptr %24, i32 0, i32 3
  %26 = getelementptr inbounds %struct.FT_ServiceCacheRec_, ptr %25, i32 0, i32 1
  %27 = load ptr, ptr %26, align 8
  store ptr %27, ptr %7, align 8
  %28 = load ptr, ptr %7, align 8
  %29 = icmp eq ptr %28, inttoptr (i64 -2 to ptr)
  br i1 %29, label %30, label %31

30:                                               ; preds = %21
  store ptr null, ptr %7, align 8
  br label %69

31:                                               ; preds = %21
  %32 = load ptr, ptr %7, align 8
  %33 = icmp eq ptr %32, null
  br i1 %33, label %34, label %68

34:                                               ; preds = %31
  br label %35

35:                                               ; preds = %34
  %36 = load ptr, ptr %4, align 8
  %37 = getelementptr inbounds %struct.FT_FaceRec_, ptr %36, i32 0, i32 24
  %38 = load ptr, ptr %37, align 8
  store ptr %38, ptr %8, align 8
  store ptr null, ptr %9, align 8
  %39 = load ptr, ptr %8, align 8
  %40 = getelementptr inbounds %struct.FT_ModuleRec_, ptr %39, i32 0, i32 0
  %41 = load ptr, ptr %40, align 8
  %42 = getelementptr inbounds %struct.FT_Module_Class_, ptr %41, i32 0, i32 8
  %43 = load ptr, ptr %42, align 8
  %44 = icmp ne ptr %43, null
  br i1 %44, label %45, label %53

45:                                               ; preds = %35
  %46 = load ptr, ptr %8, align 8
  %47 = getelementptr inbounds %struct.FT_ModuleRec_, ptr %46, i32 0, i32 0
  %48 = load ptr, ptr %47, align 8
  %49 = getelementptr inbounds %struct.FT_Module_Class_, ptr %48, i32 0, i32 8
  %50 = load ptr, ptr %49, align 8
  %51 = load ptr, ptr %8, align 8
  %52 = call ptr %50(ptr noundef %51, ptr noundef @.str)
  store ptr %52, ptr %9, align 8
  br label %53

53:                                               ; preds = %45, %35
  %54 = load ptr, ptr %9, align 8
  store ptr %54, ptr %7, align 8
  br label %55

55:                                               ; preds = %53
  %56 = load ptr, ptr %7, align 8
  %57 = icmp ne ptr %56, null
  br i1 %57, label %58, label %60

58:                                               ; preds = %55
  %59 = load ptr, ptr %7, align 8
  br label %61

60:                                               ; preds = %55
  br label %61

61:                                               ; preds = %60, %58
  %62 = phi ptr [ %59, %58 ], [ inttoptr (i64 -2 to ptr), %60 ]
  %63 = load ptr, ptr %4, align 8
  %64 = getelementptr inbounds %struct.FT_FaceRec_, ptr %63, i32 0, i32 30
  %65 = load ptr, ptr %64, align 8
  %66 = getelementptr inbounds %struct.FT_Face_InternalRec_, ptr %65, i32 0, i32 3
  %67 = getelementptr inbounds %struct.FT_ServiceCacheRec_, ptr %66, i32 0, i32 1
  store ptr %62, ptr %67, align 8
  br label %68

68:                                               ; preds = %61, %31
  br label %69

69:                                               ; preds = %68, %30
  %70 = load ptr, ptr %7, align 8
  %71 = load ptr, ptr %5, align 8
  store ptr %70, ptr %71, align 8
  br label %72

72:                                               ; preds = %69
  %73 = load ptr, ptr %5, align 8
  %74 = load ptr, ptr %73, align 8
  %75 = icmp ne ptr %74, null
  br i1 %75, label %76, label %77

76:                                               ; preds = %72
  store i32 0, ptr %6, align 4
  br label %77

77:                                               ; preds = %76, %72
  br label %78

78:                                               ; preds = %77, %14
  %79 = load i32, ptr %6, align 4
  store i32 %79, ptr %3, align 4
  br label %80

80:                                               ; preds = %78, %13
  %81 = load i32, ptr %3, align 4
  ret i32 %81
}

; Function Attrs: nounwind uwtable
define i32 @FT_Get_Multi_Master(ptr noundef %0, ptr noundef %1) #0 {
  %3 = alloca i32, align 4
  %4 = alloca ptr, align 8
  %5 = alloca ptr, align 8
  %6 = alloca i32, align 4
  %7 = alloca ptr, align 8
  store ptr %0, ptr %4, align 8
  store ptr %1, ptr %5, align 8
  %8 = load ptr, ptr %5, align 8
  %9 = icmp ne ptr %8, null
  br i1 %9, label %11, label %10

10:                                               ; preds = %2
  store i32 6, ptr %3, align 4
  br label %31

11:                                               ; preds = %2
  %12 = load ptr, ptr %4, align 8
  %13 = call i32 @ft_face_get_mm_service(ptr noundef %12, ptr noundef %7)
  store i32 %13, ptr %6, align 4
  %14 = load i32, ptr %6, align 4
  %15 = icmp ne i32 %14, 0
  br i1 %15, label %29, label %16

16:                                               ; preds = %11
  store i32 6, ptr %6, align 4
  %17 = load ptr, ptr %7, align 8
  %18 = getelementptr inbounds %struct.FT_Service_MultiMastersRec_, ptr %17, i32 0, i32 0
  %19 = load ptr, ptr %18, align 8
  %20 = icmp ne ptr %19, null
  br i1 %20, label %21, label %28

21:                                               ; preds = %16
  %22 = load ptr, ptr %7, align 8
  %23 = getelementptr inbounds %struct.FT_Service_MultiMastersRec_, ptr %22, i32 0, i32 0
  %24 = load ptr, ptr %23, align 8
  %25 = load ptr, ptr %4, align 8
  %26 = load ptr, ptr %5, align 8
  %27 = call i32 %24(ptr noundef %25, ptr noundef %26)
  store i32 %27, ptr %6, align 4
  br label %28

28:                                               ; preds = %21, %16
  br label %29

29:                                               ; preds = %28, %11
  %30 = load i32, ptr %6, align 4
  store i32 %30, ptr %3, align 4
  br label %31

31:                                               ; preds = %29, %10
  %32 = load i32, ptr %3, align 4
  ret i32 %32
}